target datalayout = "e-m:e-p270:32:32-p271:32:32-p272:64:64-i64:64-i128:128-f80:128-n8:16:32:64-S128"
target triple = "x86_64-pc-linux-gnu"

%struct.pairingheap_node = type { ptr, ptr, ptr }
%struct.pairingheap = type { ptr, ptr, ptr }

@RegisteredSnapshots = internal global %struct.pairingheap { ptr @xmin_cmp, ptr null, ptr null }, align 8
@CatalogSnapshot = internal global ptr null, align 8
@ActiveSnapshot = internal global ptr null, align 8

; Function Attrs: nounwind uwtable
define dso_local zeroext i1 @HaveRegisteredOrActiveSnapshot() #0 {
  %1 = alloca i1, align 1
  %2 = load ptr, ptr @ActiveSnapshot, align 8
  %3 = icmp ne ptr %2, null
  br i1 %3, label %4, label %5

4:                                                ; preds = %0
  store i1 true, ptr %1, align 1
  br label %21

5:                                                ; preds = %0
  %6 = load ptr, ptr @CatalogSnapshot, align 8
  %7 = icmp ne ptr %6, null
  br i1 %7, label %8, label %17

8:                                                ; preds = %5
  %9 = load ptr, ptr getelementptr inbounds nuw (%struct.pairingheap, ptr @RegisteredSnapshots, i32 0, i32 2), align 8
  %10 = icmp ne ptr %9, null
  br i1 %10, label %11, label %17

11:                                               ; preds = %8
  %12 = load ptr, ptr getelementptr inbounds nuw (%struct.pairingheap, ptr @RegisteredSnapshots, i32 0, i32 2), align 8
  %13 = getelementptr inbounds nuw %struct.pairingheap_node, ptr %12, i32 0, i32 0
  %14 = load ptr, ptr %13, align 8
  %15 = icmp eq ptr %14, null
  br i1 %15, label %16, label %17

16:                                               ; preds = %11
  store i1 false, ptr %1, align 1
  br label %21

17:                                               ; preds = %11, %8, %5
  %18 = load ptr, ptr getelementptr inbounds nuw (%struct.pairingheap, ptr @RegisteredSnapshots, i32 0, i32 2), align 8
  %19 = icmp eq ptr %18, null
  %20 = xor i1 %19, true
  store i1 %20, ptr %1, align 1
  br label %21

21:                                               ; preds = %17, %16, %4
  %22 = load i1, ptr %1, align 1
  ret i1 %22
}