; Function Attrs: mustprogress nofree norecurse nosync nounwind willreturn memory(read, inaccessiblemem: none) uwtable
define dso_local zeroext i1 @HaveRegisteredOrActiveSnapshot() local_unnamed_addr #6 {
  %1 = load ptr, ptr @ActiveSnapshot, align 8
  %.not = icmp eq ptr %1, null
  br i1 %.not, label %2, label %11

2:                                                ; preds = %0
  %3 = load ptr, ptr @CatalogSnapshot, align 8
  %4 = icmp ne ptr %3, null
  %5 = load ptr, ptr getelementptr inbounds nuw (i8, ptr @RegisteredSnapshots, i64 16), align 8
  %6 = icmp ne ptr %5, null
  %or.cond = select i1 %4, i1 %6, i1 false
  br i1 %or.cond, label %7, label %10

7:                                                ; preds = %2
  %8 = load ptr, ptr %5, align 8
  %9 = icmp eq ptr %8, null
  br i1 %9, label %11, label %10

10:                                               ; preds = %7, %2
  br label %11

11:                                               ; preds = %7, %0, %10
  %.0 = phi i1 [ %6, %10 ], [ true, %0 ], [ false, %7 ]
  ret i1 %.0
}